(dp0
S'keywords'
p1
(dp2
Vopposites
p3
(lp4
S'/Users/jayson/.vim/misc/notes/user/PSYCH 101 Jan 15 - Research Methods (Continued)'
p5
asVsleep
p6
(lp7
S'/Users/jayson/.vim/misc/notes/user/PSYCH 101 Feb 5 - Consciousness'
p8
asVrelationships
p9
(lp10
g5
aS'/Users/jayson/.vim/misc/notes/user/PSYCH 101 Jan 22 - Developmental Psychology (Continued)'
p11
asVphysiological
p12
(lp13
g5
asVdisability
p14
(lp15
S'/Users/jayson/.vim/misc/notes/user/PSYCH 101 Feb 12 - Learning'
p16
asVunder
p17
(lp18
S'/home/jayson.rhynas/.vim/misc/notes/user/Playlist Issues'
p19
aS'/Users/jayson/.vim/misc/notes/user/Playlist Issues'
p20
aS'/Users/jayson/.vim/misc/notes/user/devtasks'
p21
asVteaching
p22
(lp23
g11
asVfilehelper
p24
(lp25
g21
asVupdated
p26
(lp27
S'/home/jayson.rhynas/.vim/misc/notes/user/Playlist Workflow'
p28
aS'/Users/jayson/.vim/misc/notes/user/Playlist Workflow'
p29
asVaffect
p30
(lp31
S'/Users/jayson/.vim/misc/notes/user/PSYCH 101 Jan 17 - Developmental Psychology'
p32
ag5
aS'/Users/jayson/.vim/misc/notes/user/PSYCH 101 January 24 - Cognitive Neuroscience'
p33
aS'/Users/jayson/.vim/misc/notes/user/PSYCH 101 Jan 24 - Cognitive Neuroscience'
p34
asVschool
p35
(lp36
g16
asVskills
p37
(lp38
g32
ag34
asVcause
p39
(lp40
g5
asVviable
p41
(lp42
S'/Users/jayson/.vim/misc/notes/user/UX'
p43
asVunconditioned
p44
(lp45
g16
asVinfancy
p46
(lp47
g32
asVsecond
p48
(lp49
g5
asVshow_cover_art
p50
(lp51
S'/Users/jayson/.vim/misc/notes/user/Load_user_script'
p52
asVestimated
p53
(lp54
g5
asVblue
p55
(lp56
g32
ag11
asVerrors
p57
(lp58
g21
asVhide
p59
(lp60
g21
asVpreferences
p61
(lp62
g16
asVselected
p63
(lp64
g19
ag20
ag21
asVlights
p65
(lp66
S'/Users/jayson/.vim/misc/notes/user/PSYCH 101 Jan 29 - Sensation and Perception'
p67
asVabove
p68
(lp69
g28
ag29
aS'/Users/jayson/.vim/misc/notes/user/test'
p70
asVnew
p71
(lp72
g43
ag21
ag11
ag8
asVtips
p73
(lp74
g43
ag5
asVincreasing
p75
(lp76
g67
asVtold
p77
(lp78
g5
ag11
asVspecialist
p79
(lp80
g16
asV_stagnation_
p81
(lp82
g67
asVnever
p83
(lp84
g16
asVpath
p85
(lp86
g11
asV100
p87
(lp88
g67
asV101
p89
(lp90
S'/Users/jayson/.vim/misc/notes/user/PSYCH 101 - January 22, 2013'
p91
ag32
ag5
ag33
ag11
ag34
ag8
ag67
ag16
asVmccallum
p92
(lp93
S'/Users/jayson/.vim/misc/notes/user/Velocity Marketing Workshop'
p94
asVobtained
p95
(lp96
g16
asVkids
p97
(lp98
g11
asVitems
p99
(lp100
g19
ag28
ag20
ag29
asVstudy
p101
(lp102
g43
ag5
asVchanged
p103
(lp104
g5
ag21
ag11
asVperinatal
p105
(lp106
g32
asVsmoke
p107
(lp108
g67
asVaka
p109
(lp110
g34
ag67
asVchanges
p111
(lp112
g5
ag33
ag34
ag67
asVpunishment
p113
(lp114
g11
ag16
asVget_resource_image
p115
(lp116
g28
ag29
asVreplace
p117
(lp118
g28
ag29
ag21
asVpsychological
p119
(lp120
g67
asVunmyelinated
p121
(lp122
g67
asVexperimentation
p123
(lp124
g33
ag34
asVbrowse
p125
(lp126
g19
ag20
asVachieve
p127
(lp128
g16
asVnegative
p129
(lp130
g21
ag11
asVmusic
p131
(lp132
g67
asVtherefore
p133
(lp134
g19
ag20
ag11
asVthorndike
p135
(lp136
g16
asVtype
p137
(lp138
g19
ag28
ag20
ag29
ag16
asVtell
p139
(lp140
g11
ag67
asVpopulations
p141
(lp142
g11
asVsuccessful
p143
(lp144
g43
ag11
asVbrings
p145
(lp146
g94
asVhurt
p147
(lp148
g5
asVwarn
p149
(lp150
g21
asVglass
p151
(lp152
g32
asVwarm
p153
(lp154
g11
asVhold
p155
(lp156
g21
asVmust
p157
(lp158
g5
asVsetup
p159
(lp160
g21
asVwork
p161
(lp162
g32
ag11
ag16
asVtheories
p163
(lp164
g5
asVmovies
p165
(lp166
g19
ag20
asVrim
p167
(lp168
S'/Users/jayson/.vim/misc/notes/user/percussion'
p169
asVtemperatures
p170
(lp171
g67
asVconcepts
p172
(lp173
g32
ag67
asVrework
p174
(lp175
g21
asVcould
p176
(lp177
g19
ag28
ag20
ag29
ag5
ag16
asVpannels
p178
(lp179
g21
asVgive
p180
(lp181
g19
ag20
ag32
ag5
ag11
asVimplementations
p182
(lp183
g43
asVfoods
p184
(lp185
g16
asVwant
p186
(lp187
g43
ag5
ag11
ag16
asVpiaget
p188
(lp189
g32
ag11
asVtimes
p190
(lp191
g43
ag67
asVattract
p192
(lp193
g5
asVabsolute
p194
(lp195
g67
asVend
p196
(lp197
g21
ag11
ag16
asVrecovery
p198
(lp199
g16
asVhypnosis
p200
(lp201
g8
asV3340
p202
(lp203
g19
ag20
asVcolds
p204
(lp205
g5
asVfeature
p206
(lp207
g43
asVhow
p208
(lp209
g43
ag32
ag5
ag33
ag11
ag34
ag67
ag16
asVhot
p210
(lp211
g5
asVplayback
p212
(lp213
g19
ag20
ag21
asVclassify
p214
(lp215
g32
asVafter
p216
(lp217
g19
ag20
ag43
ag32
ag21
ag8
ag16
asVlab
p218
(lp219
g16
asVwrong
p220
(lp221
g21
asVtypes
p222
(lp223
g32
ag33
ag34
asVpurchase
p224
(lp225
g94
asVattempt
p226
(lp227
g16
asVchildhood
p228
(lp229
g32
asVhypotheses
p230
(lp231
g5
asVemit_cue
p232
(lp233
g28
ag29
asVenter
p234
(lp235
g70
ag67
asVworst
p236
(lp237
g43
asVoperations
p238
(lp239
g21
asVfeedback
p240
(lp241
g43
asVover
p242
(lp243
g43
ag32
ag33
ag34
ag67
ag16
asVoven
p244
(lp245
g11
asVspontaneous
p246
(lp247
g16
asVpriming
p248
(lp249
g67
asVbackpack
p250
(lp251
g5
asVbetter
p252
(lp253
g5
ag67
asVdistinguishing
p254
(lp255
g16
asVdifferently
p256
(lp257
g5
asVfade
p258
(lp259
g21
asVweeks
p260
(lp261
g8
asVphenotype
p262
(lp263
g32
asVthen
p264
(lp265
g19
ag28
ag20
ag29
ag32
asVthem
p266
(lp267
g20
ag32
ag5
ag21
ag34
ag8
ag67
ag16
asVaffected
p268
(lp269
g43
asVslate
p270
(lp271
g32
asVacademics
p272
(lp273
g16
asVtherapy
p274
(lp275
g8
asVeffects
p276
(lp277
g21
asVthey
p278
(lp279
g19
ag20
ag94
ag32
ag5
ag11
ag34
ag67
ag16
asVsleepless
p280
(lp281
g8
asVfill_in_play_item_scene
p282
(lp283
g52
asVarrow
p284
(lp285
g21
asVeach
p286
(lp287
g19
ag28
ag20
ag29
ag32
ag67
asVacoustic
p288
(lp289
g169
asVfeeds
p290
(lp291
g8
asVside
p292
(lp293
g32
ag34
ag8
asVinterruption
p294
(lp295
g21
asVevolve
p296
(lp297
g32
asVprinciples
p298
(lp299
g43
ag5
asVprecedes
p300
(lp301
g16
asVhistocompatibility
p302
(lp303
g67
asVlogo
p304
(lp305
g94
asVby
p306
(lp307
g20
ag43
ag32
ag5
ag11
ag67
ag16
asVrw
p308
(lp309
g21
asVpsychic
p310
(lp311
g16
asVre
p312
(lp313
g19
ag20
ag70
ag94
ag32
ag5
ag11
ag67
ag16
asVencourage
p314
(lp315
g43
asVgot
p316
(lp317
g5
asVtwice
p318
(lp319
g19
ag20
asVindependence
p320
(lp321
g32
asVperception
p322
(lp323
g8
ag67
asVlittle
p324
(lp325
g34
asVsensory
p326
(lp327
g32
ag34
ag67
asVcheck_step_availability
p328
(lp329
g19
ag20
asVmastering
p330
(lp331
g32
asVestimate
p332
(lp333
g5
asVate
p334
(lp335
g16
asVdays
p336
(lp337
g8
asVisn
p338
(lp339
g94
ag16
asVsignature
p340
(lp341
g21
asVloud
p342
(lp343
g67
asVuser
p344
(lp345
g28
ag29
ag43
ag21
asVappeals
p346
(lp347
g5
asVresearcher
p348
(lp349
g5
asVprimary
p350
(lp351
g5
ag8
asVhearing
p352
(lp353
g67
ag16
asVspinning
p354
(lp355
g21
asVanother
p356
(lp357
g5
ag8
ag67
asVwasn
p358
(lp359
g11
asVthick
p360
(lp361
g21
asVstimulation
p362
(lp363
g67
asVbasketball
p364
(lp365
g67
asVservice
p366
(lp367
g43
asVtheir
p368
(lp369
g19
ag20
ag43
ag11
ag34
ag16
asVtop
p370
(lp371
g19
ag20
ag21
asVneeded
p372
(lp373
g16
asVtoo
p374
(lp375
g20
ag8
ag16
asVtom
p376
(lp377
g169
asVcycle
p378
(lp379
g19
ag20
ag8
asVbitter
p380
(lp381
g67
asVdogs
p382
(lp383
g16
asVbouncing
p384
(lp385
g67
asVtook
p386
(lp387
g5
asVwisdom
p388
(lp389
g11
asVanxiety
p390
(lp391
g5
asVdissapears
p392
(lp393
g21
asVlikely
p394
(lp395
g11
ag67
ag16
asVproject
p396
(lp397
g43
ag21
asVmatter
p398
(lp399
g32
ag5
asVstreet
p400
(lp401
g34
asViron
p402
(lp403
g32
asVfeeling
p404
(lp405
g32
asVmodern
p406
(lp407
g32
asVmind
p408
(lp409
g32
asVtalking
p410
(lp411
g43
asVrat
p412
(lp413
g16
asVseen
p414
(lp415
g32
asVseem
p416
(lp417
g5
ag8
asVray
p418
(lp419
g19
ag20
asVperson
p420
(lp421
g32
ag67
ag16
asVthat
p422
(lp423
g19
ag52
ag20
ag32
ag5
ag21
ag11
ag67
ag16
asVoriented
p424
(lp425
g11
asVsound
p426
(lp427
g21
ag34
asVrecommended
p428
(lp429
g94
asVcausing
p430
(lp431
g8
ag16
asVabsorbed
p432
(lp433
g34
asVamnt
p434
(lp435
g32
asVeven
p436
(lp437
g94
ag5
ag11
ag67
ag16
asVinattentional
p438
(lp439
g67
asVobject
p440
(lp441
g28
ag20
ag29
ag32
asVdiminishing
p442
(lp443
g11
asVregular
p444
(lp445
g94
asVscripts
p446
(lp447
g19
ag20
asVthe
p448
(lp449
g19
ag28
ag20
ag29
ag70
ag43
ag32
ag5
ag11
ag34
ag8
ag67
ag16
asVdon
p450
(lp451
g19
ag20
ag32
ag21
ag11
ag67
ag16
asVobservation
p452
(lp453
g43
asVdog
p454
(lp455
g16
asVsaying
p456
(lp457
g28
ag29
asVrandom
p458
(lp459
g5
ag11
asVsyntax
p460
(lp461
g70
asVsolutions
p462
(lp463
g43
asVearth
p464
(lp465
g5
asVavailability
p466
(lp467
g28
ag29
asVlayout
p468
(lp469
g21
asVproposed
p470
(lp471
g5
asV_usable_
p472
(lp473
g43
asVexplain
p474
(lp475
g5
asVtheme
p476
(lp477
g5
asVjudged
p478
(lp479
g43
asVfolder
p480
(lp481
g21
asVpersonality
p482
(lp483
g32
asVdo
p484
(lp485
g19
ag20
ag32
ag5
ag21
ag33
ag11
ag34
ag8
ag16
asVwatch
p486
(lp487
g21
asVperceive
p488
(lp489
g16
asVterrors
p490
(lp491
g8
asVwatson
p492
(lp493
g16
asVdespite
p494
(lp495
g5
asVbag
p496
(lp497
g11
asVbad
p498
(lp499
g43
ag5
ag8
ag67
ag16
asVidentify
p500
(lp501
g43
asVmetadata
p502
(lp503
g19
ag20
asVrespond
p504
(lp505
g67
asVethical
p506
(lp507
g33
ag34
asVassoication
p508
(lp509
g34
asVget_play_item_index_by_id
p510
(lp511
g52
asVsensitivity
p512
(lp513
g67
asVtesting
p514
(lp515
g43
ag5
ag16
asVobserved
p516
(lp517
g5
ag16
asVdecided
p518
(lp519
g32
asVresult
p520
(lp521
g67
ag16
asVcorrupt
p522
(lp523
g21
asVcorrelational
p524
(lp525
g5
asVsubject
p526
(lp527
g5
ag34
ag16
asVsaid
p528
(lp529
g5
asVlots
p530
(lp531
g19
ag20
asVreuploads
p532
(lp533
g21
asVrings
p534
(lp535
g16
asVfilename
p536
(lp537
g70
asVunable
p538
(lp539
g19
ag20
asVfinger
p540
(lp541
g21
asVunalterable
p542
(lp543
g5
asVsorts
p544
(lp545
g20
asVpreserve
p546
(lp547
g8
asVwe
p548
(lp549
g19
ag20
ag32
ag5
ag11
ag8
ag67
ag16
asVtriplet
p550
(lp551
g21
asVterms
p552
(lp553
g16
asVnature
p554
(lp555
g32
asVstakeholder
p556
(lp557
g43
asVwk
p558
(lp559
g16
asVvitamin
p560
(lp561
g5
asVnightmares
p562
(lp563
g8
asVadd
p564
(lp565
g28
ag29
ag21
asVcousin
p566
(lp567
g32
asVimprove
p568
(lp569
g21
asVbehaviour
p570
(lp571
g32
ag11
ag16
asVprotect
p572
(lp573
g8
asVagainst
p574
(lp575
g28
ag29
asVlogic
p576
(lp577
g32
asVcom
p578
(lp579
g19
ag20
ag94
ag21
asVasked
p580
(lp581
g5
ag67
asVadd_selection_handle
p582
(lp583
g52
asV2nd
p584
(lp585
g21
asVputs
p586
(lp587
g11
asVbeen
p588
(lp589
g5
asVquickly
p590
(lp591
g5
ag8
asVmuch
p592
(lp593
g43
ag11
ag8
ag67
ag16
asVreplicate
p594
(lp595
g16
asVinterest
p596
(lp597
g5
asVbasic
p598
(lp599
g21
ag67
asVwebsite
p600
(lp601
g94
asVlife
p602
(lp603
g32
asVchild
p604
(lp605
g32
asVsave
p606
(lp607
g70
ag21
asVoriginate
p608
(lp609
g67
asVair
p610
(lp611
g94
asVsavanna
p612
(lp613
g32
asVremembering
p614
(lp615
g16
asV9345
p616
(lp617
g19
ag20
asVplayed
p618
(lp619
g19
ag20
asViq
p620
(lp621
g5
asVis
p622
(lp623
g19
ag28
ag20
ag29
ag43
ag32
ag5
ag21
ag11
ag34
ag8
ag67
ag16
asVit
p624
(lp625
g19
ag28
ag20
ag29
ag32
ag5
ag33
ag11
ag34
ag8
ag67
ag16
asVconditioned
p626
(lp627
g16
asVplayer
p628
(lp629
g28
ag29
ag34
asVin
p630
(lp631
g19
ag28
ag20
ag29
ag70
ag43
ag94
ag32
ag21
ag33
ag11
ag34
ag8
ag67
ag16
asVcomparative
p632
(lp633
g32
asVif
p634
(lp635
g19
ag28
ag20
ag29
ag43
ag32
ag5
ag21
ag67
ag16
asVseverity
p636
(lp637
g16
asVperform
p638
(lp639
g16
asVthings
p640
(lp641
g67
asVmake
p642
(lp643
g94
ag5
ag21
asVcumulative
p644
(lp645
g34
asVcomplex
p646
(lp647
g67
asVpotentially
p648
(lp649
g19
ag20
asVsplit
p650
(lp651
g32
asVbabies
p652
(lp653
g33
ag11
ag34
ag16
asVwheel
p654
(lp655
g43
ag21
asVindependent
p656
(lp657
g32
ag5
asVhand
p658
(lp659
g67
asVkid
p660
(lp661
g11
ag16
asVkept
p662
(lp663
g8
asVstimuli
p664
(lp665
g67
ag16
asV1970
p666
(lp667
g32
asVpractices
p668
(lp669
g5
asVjean
p670
(lp671
g32
asVleft
p672
(lp673
g34
asVaction_type_play_playitem
p674
(lp675
g19
ag20
asVquery_play_items_for_selection
p676
(lp677
g52
asVjust
p678
(lp679
g70
ag5
ag67
ag16
asVable
p680
(lp681
g5
ag67
ag16
asVpsychophysics
p682
(lp683
g67
asVpsych
p684
(lp685
g91
ag32
ag5
ag33
ag11
ag34
ag8
ag67
ag16
asVhuman
p686
(lp687
g33
ag34
ag16
asVnoticible
p688
(lp689
g67
asVdeters
p690
(lp691
g67
asVhad
p692
(lp693
g5
ag11
ag16
asVanimation
p694
(lp695
g21
ag67
asVcollections
p696
(lp697
g19
ag20
asVboard
p698
(lp699
g5
asVeasy
p700
(lp701
g16
asVget_local_media_info
p702
(lp703
g28
ag52
ag29
asVhas
p704
(lp705
g19
ag20
ag32
ag5
ag11
ag16
asVhat
p706
(lp707
g169
asVgave
p708
(lp709
g8
ag16
asVopt
p710
(lp711
g94
asVinvoluntary
p712
(lp713
g8
asVpossibly
p714
(lp715
g19
ag20
ag5
ag34
asVcultural
p716
(lp717
g32
ag11
ag16
asVbirth
p718
(lp719
g32
asVfeelings
p720
(lp721
g43
asVadvanced
p722
(lp723
g32
asV55
p724
(lp725
g169
asV54
p726
(lp727
g169
asV11101
p728
(lp729
g19
ag20
asV51
p730
(lp731
g169
asV50
p732
(lp733
g169
ag67
asVspecific
p734
(lp735
g43
ag67
ag16
asVsteps
p736
(lp737
g19
ag28
ag52
ag20
ag29
asVnight
p738
(lp739
g8
asVright
p740
(lp741
g19
ag20
ag21
ag11
ag34
ag16
asVold
p742
(lp743
g19
ag20
ag32
ag11
ag16
asVpeople
p744
(lp745
g32
ag5
ag33
ag11
ag34
ag8
ag67
ag16
asVbpm
p746
(lp747
g21
asVunnecessary
p748
(lp749
g16
asVborn
p750
(lp751
g32
asVux
p752
(lp753
g43
asVmultiple
p754
(lp755
g19
ag20
ag21
asVfor
p756
(lp757
g19
ag28
ag52
ag20
ag29
ag70
ag43
ag32
ag5
ag21
ag33
ag11
ag34
ag8
ag16
asVnormal
p758
(lp759
g70
asVallocate
p760
(lp761
g28
ag52
ag29
asVgenotypes
p762
(lp763
g32
asVparticipation
p764
(lp765
g43
asVshaker
p766
(lp767
g169
ag21
asVpreoperational
p768
(lp769
g32
asVmarketing
p770
(lp771
g94
asVpaid
p772
(lp773
g5
asVpeer
p774
(lp775
g5
asVchilderen
p776
(lp777
g32
asVproperties
p778
(lp779
g32
asVplug
p780
(lp781
g70
asVbee2beemarketing
p782
(lp783
g94
asVautomatically
p784
(lp785
g70
asVprimitive
p786
(lp787
g32
asVthinner
p788
(lp789
g67
asVpresence
p790
(lp791
g28
ag52
ag29
ag67
asVdown
p792
(lp793
g21
ag34
asVdemandingness
p794
(lp795
g11
asVbalanced
p796
(lp797
g16
asVoften
p798
(lp799
g43
ag32
ag5
ag11
ag16
asVrely
p800
(lp801
g11
asVsupport
p802
(lp803
g16
asVclass
p804
(lp805
g16
asVconservation
p806
(lp807
g32
asVway
p808
(lp809
g19
ag20
ag34
asVtriplets
p810
(lp811
g21
asVmedia_handle
p812
(lp813
g28
ag29
asVwas
p814
(lp815
g5
ag33
ag11
ag34
asVlowest
p816
(lp817
g19
ag20
asVform
p818
(lp819
g5
asVsome
p820
(lp821
g19
ag20
ag32
ag21
ag8
ag16
asVnotifications
p822
(lp823
g21
asVheap
p824
(lp825
g28
ag29
asVquery_all_selection_handles_for_media_hash
p826
(lp827
g52
asVblindness
p828
(lp829
g67
asVreset
p830
(lp831
g21
asVinjury
p832
(lp833
g34
asVinput
p834
(lp835
g32
ag34
asVinside
p836
(lp837
g11
ag67
asVstages
p838
(lp839
g32
asVdelete
p840
(lp841
g21
asVproved
p842
(lp843
g5
asVclassic
p844
(lp845
g11
asVevidence
p846
(lp847
g5
ag11
asVlimbic
p848
(lp849
g67
asVexist
p850
(lp851
g32
ag11
asVmediocre
p852
(lp853
g11
asVcheck
p854
(lp855
g28
ag29
asVphysical
p856
(lp857
g32
ag67
asVno
p858
(lp859
g19
ag28
ag20
ag29
ag32
ag5
ag21
ag34
ag16
asVauthoritative
p860
(lp861
g11
asVwhen
p862
(lp863
g19
ag20
ag70
ag43
ag32
ag5
ag21
ag11
ag67
ag16
asVreality
p864
(lp865
g5
asVinterested
p866
(lp867
g16
asVrole
p868
(lp869
g67
asVdigital
p870
(lp871
g94
asVtest
p872
(lp873
g70
ag43
ag5
ag8
asVdepot
p874
(lp875
g28
ag29
asVsmell
p876
(lp877
g67
asVintend
p878
(lp879
g43
asVupdate
p880
(lp881
g70
ag21
asVconcurrent
p882
(lp883
g21
asVvariable
p884
(lp885
g32
ag5
ag16
asVneuroscience
p886
(lp887
g33
ag34
asVreflexes
p888
(lp889
g16
asVyounger
p890
(lp891
g11
asVfaster
p892
(lp893
g67
asVassume
p894
(lp895
g5
ag16
asVinterval
p896
(lp897
g16
asVaffects
p898
(lp899
g5
ag34
asVconcept
p900
(lp901
g32
asVfocus
p902
(lp903
g43
ag94
ag32
asVleads
p904
(lp905
g43
asVosd
p906
(lp907
g19
ag20
asVsuicide
p908
(lp909
g34
asVzone
p910
(lp911
g21
asVfather
p912
(lp913
g32
asVenvironment
p914
(lp915
g32
ag67
asVbrown
p916
(lp917
g32
asVpermissive
p918
(lp919
g11
asVconsolidation
p920
(lp921
g8
asVdetermine_playlist_cover
p922
(lp923
g19
ag20
asVlevel
p924
(lp925
g19
ag28
ag20
ag29
ag34
asVdid
p926
(lp927
g32
asVstandards
p928
(lp929
g33
ag34
asVitem
p930
(lp931
g19
ag28
ag20
ag29
ag16
asVprevent
p932
(lp933
g21
asVslower
p934
(lp935
g8
ag67
asVdiscover
p936
(lp937
g21
asVrun
p938
(lp939
g16
asVplay_playitem
p940
(lp941
g52
asVstands
p942
(lp943
g94
asVcurrent
p944
(lp945
g21
asVgoes
p946
(lp947
g8
asVgenes
p948
(lp949
g32
asVunderstanding
p950
(lp951
g32
ag11
asVwater
p952
(lp953
g32
asVgroups
p954
(lp955
g43
ag5
asVaddress
p956
(lp957
g94
asVgoldfish
p958
(lp959
g32
asVcrackers
p960
(lp961
g32
asVchange
p962
(lp963
g5
ag21
ag11
asVbox
p964
(lp965
g94
asVhealthy
p966
(lp967
g33
ag34
ag16
asVshift
p968
(lp969
g21
asVspacial
p970
(lp971
g33
ag34
asVstudied
p972
(lp973
g5
asVexample
p974
(lp975
g16
asVusually
p976
(lp977
g5
ag11
ag34
ag8
ag67
ag16
asVstudies
p978
(lp979
g43
ag5
ag33
ag34
asVtasks
p980
(lp981
g43
ag16
asVregardless
p982
(lp983
g19
ag20
asVtweak
p984
(lp985
g21
asVcmp_api_request
p986
(lp987
g52
asVcontrols
p988
(lp989
g8
asVrarely
p990
(lp991
g8
asVmarket
p992
(lp993
g43
asVjan
p994
(lp995
g32
ag5
ag11
ag34
ag67
asVdeselecting
p996
(lp997
g21
asVworking
p998
(lp999
g8
asVprove
p1000
(lp1001
g5
asVpositive
p1002
(lp1003
g11
asVsports
p1004
(lp1005
g11
asVhandles
p1006
(lp1007
g19
ag28
ag20
ag29
asVhttps
p1008
(lp1009
g19
ag20
asVmemory
p1010
(lp1011
g21
ag34
ag8
ag16
asVprivleges
p1012
(lp1013
g16
asVpavlov
p1014
(lp1015
g16
asVmarbles
p1016
(lp1017
g11
asVneglected
p1018
(lp1019
g34
asV13645
p1020
(lp1021
g19
ag20
asVcap
p1022
(lp1023
g33
ag34
asVvalues
p1024
(lp1025
g21
asVcan
p1026
(lp1027
g19
ag28
ag20
ag29
ag94
ag33
ag11
ag34
ag8
ag67
ag16
asVbelieved
p1028
(lp1029
g32
asVunconditional
p1030
(lp1031
g16
asVusability
p1032
(lp1033
g43
asVstreak
p1034
(lp1035
g5
asVbehaviorism
p1036
(lp1037
g16
asVfigure
p1038
(lp1039
g21
ag67
ag16
asVpredict
p1040
(lp1041
g5
asVsample
p1042
(lp1043
g21
ag16
asVperformed
p1044
(lp1045
g19
ag20
asVhides
p1046
(lp1047
g11
asVcounting
p1048
(lp1049
g67
asVoccur
p1050
(lp1051
g8
asVdiscussion
p1052
(lp1053
g43
asVspecies
p1054
(lp1055
g32
ag67
asVwrite
p1056
(lp1057
g70
asVimmune
p1058
(lp1059
g67
asVsnaps
p1060
(lp1061
g21
asVinfluenced
p1062
(lp1063
g32
asVmay
p1064
(lp1065
g19
ag20
ag32
ag5
asVmax
p1066
(lp1067
g21
asVsuch
p1068
(lp1069
g32
asVdata
p1070
(lp1071
g43
asVgrow
p1072
(lp1073
g32
asVnatural
p1074
(lp1075
g43
asVremember
p1076
(lp1077
g5
ag11
ag34
ag16
asVinform
p1078
(lp1079
g5
ag33
ag34
asVswitch
p1080
(lp1081
g21
asVso
p1082
(lp1083
g19
ag28
ag20
ag29
ag5
ag21
ag11
asVafrican
p1084
(lp1085
g32
asVtall
p1086
(lp1087
g32
asVtalk
p1088
(lp1089
g43
asVtypical
p1090
(lp1091
g5
asVgalton
p1092
(lp1093
g32
asVseeing
p1094
(lp1095
g32
ag16
asVthresholds
p1096
(lp1097
g21
ag67
asVraised
p1098
(lp1099
g32
asVyears
p1100
(lp1101
g32
ag11
ag34
asVcourse
p1102
(lp1103
g5
asVexperiments
p1104
(lp1105
g33
ag34
asVstatistical
p1106
(lp1107
g5
asVshake
p1108
(lp1109
g67
asVcold
p1110
(lp1111
g5
ag34
asVstill
p1112
(lp1113
g19
ag20
ag32
ag33
ag11
ag34
ag8
asVobservational
p1114
(lp1115
g16
asVgroup
p1116
(lp1117
g5
asVinteresting
p1118
(lp1119
g43
asVmethodology
p1120
(lp1121
g11
asVmail
p1122
(lp1123
g94
asVmain
p1124
(lp1125
g28
ag29
asVnon
p1126
(lp1127
g43
ag8
asVviews
p1128
(lp1129
g32
asVinsomnia
p1130
(lp1131
g8
asVevolution
p1132
(lp1133
g32
asVchromatic
p1134
(lp1135
g21
asVtouching
p1136
(lp1137
g21
asVnot
p1138
(lp1139
g19
ag28
ag20
ag29
ag32
ag5
ag21
ag11
ag34
ag8
ag67
ag16
asVsorted
p1140
(lp1141
g20
asVnow
p1142
(lp1143
g19
ag20
ag34
asVnor
p1144
(lp1145
g5
asVterm
p1146
(lp1147
g8
asVname
p1148
(lp1149
g28
ag29
ag70
ag34
asVjanuary
p1150
(lp1151
g91
ag33
asVoperant
p1152
(lp1153
g16
asVex
p1154
(lp1155
g32
ag5
ag21
ag67
asVhappen
p1156
(lp1157
g33
ag34
asVpills
p1158
(lp1159
g8
asVshown
p1160
(lp1161
g19
ag20
asVfactors
p1162
(lp1163
g32
asVblu
p1164
(lp1165
g19
ag20
asVlooking
p1166
(lp1167
g11
asVcontained
p1168
(lp1169
g16
asVcorrect
p1170
(lp1171
g21
asVtheory
p1172
(lp1173
g32
ag5
ag16
asVmyelinated
p1174
(lp1175
g67
asVadvantages
p1176
(lp1177
g11
asVcare
p1178
(lp1179
g11
asVtraining
p1180
(lp1181
g16
asVcouldn
p1182
(lp1183
g11
asVmotor
p1184
(lp1185
g34
ag16
asVmotion
p1186
(lp1187
g32
asVturn
p1188
(lp1189
g34
asVplace
p1190
(lp1191
g20
ag94
asVscript_sheet_work_item
p1192
(lp1193
g19
ag28
ag20
ag29
asVpromotion
p1194
(lp1195
g94
asVneglect
p1196
(lp1197
g34
asVfirst
p1198
(lp1199
g43
ag5
ag21
ag11
ag67
asVblind
p1200
(lp1201
g5
asVsaving
p1202
(lp1203
g21
asVreimplement
p1204
(lp1205
g21
asVvariables
p1206
(lp1207
g5
asVone
p1208
(lp1209
g43
ag32
ag5
ag21
ag34
ag67
ag16
asVdirectly
p1210
(lp1211
g19
ag20
ag43
asVmessage
p1212
(lp1213
g28
ag29
asVfight
p1214
(lp1215
g16
asVopen
p1216
(lp1217
g169
ag21
asVethics
p1218
(lp1219
g5
asVsize
p1220
(lp1221
g32
ag21
asVfmri
p1222
(lp1223
g33
ag34
asVgiven
p1224
(lp1225
g5
asVnecessarily
p1226
(lp1227
g11
asVchecked
p1228
(lp1229
g28
ag29
asVgenotype
p1230
(lp1231
g32
asVbookmark
p1232
(lp1233
g28
ag29
asVstructured
p1234
(lp1235
g11
asVanyone
p1236
(lp1237
g43
asVreturns
p1238
(lp1239
g19
ag20
asVinfluencing
p1240
(lp1241
g94
asVlegally
p1242
(lp1243
g94
asVlingering
p1244
(lp1245
g67
asVgives
p1246
(lp1247
g94
ag32
ag8
ag16
asVeyes
p1248
(lp1249
g32
asVinefficient
p1250
(lp1251
g19
ag20
asVmostly
p1252
(lp1253
g11
asV150lbs
p1254
(lp1255
g5
asVbrains
p1256
(lp1257
g33
ag34
asVshort
p1258
(lp1259
g32
asVcopy
p1260
(lp1261
g21
asVthan
p1262
(lp1263
g5
ag11
ag67
asVpopulation
p1264
(lp1265
g11
asV11
p1266
(lp1267
g32
asV10
p1268
(lp1269
g11
asV12
p1270
(lp1271
g16
asV15
p1272
(lp1273
g5
asV17
p1274
(lp1275
g32
asVrequire
p1276
(lp1277
g11
asVreinforce
p1278
(lp1279
g16
asVfuture
p1280
(lp1281
g67
asVwere
p1282
(lp1283
g5
ag16
asVcards
p1284
(lp1285
g94
asVpoisoning
p1286
(lp1287
g16
asVand
p1288
(lp1289
g19
ag28
ag20
ag29
ag70
ag43
ag94
ag32
ag5
ag21
ag33
ag11
ag34
ag8
ag67
ag16
asVunderprepared
p1290
(lp1291
g11
asVgeneralization
p1292
(lp1293
g16
asVsay
p1294
(lp1295
g32
ag11
asVrecover
p1296
(lp1297
g5
ag8
asVexploratory
p1298
(lp1299
g5
asVediting
p1300
(lp1301
g21
asVanswering
p1302
(lp1303
g11
asVnote
p1304
(lp1305
g70
ag21
asVpotential
p1306
(lp1307
g32
asVtake
p1308
(lp1309
g43
ag5
ag16
asVonline
p1310
(lp1311
g94
asVtambourine
p1312
(lp1313
g169
asVswitching
p1314
(lp1315
g21
asVsure
p1316
(lp1317
g94
ag21
asVpain
p1318
(lp1319
g67
asVopposite
p1320
(lp1321
g5
asVtrack
p1322
(lp1323
g21
asVprice
p1324
(lp1325
g94
asVcorrelation
p1326
(lp1327
g5
asVevaporate
p1328
(lp1329
g67
asVskinner
p1330
(lp1331
g16
asVsheets
p1332
(lp1333
g94
asV12045
p1334
(lp1335
g19
ag20
asVcomplaints
p1336
(lp1337
g43
asVespecially
p1338
(lp1339
g11
asVconsidered
p1340
(lp1341
g19
ag20
ag34
asVaverage
p1342
(lp1343
g11
asVlater
p1344
(lp1345
g43
ag16
asVtollerance
p1346
(lp1347
g8
asVquantity
p1348
(lp1349
g32
asVrating
p1350
(lp1351
g19
ag20
asVwalking
p1352
(lp1353
g34
asVshot
p1354
(lp1355
g169
asVshow
p1356
(lp1357
g19
ag20
ag32
ag21
asVbright
p1358
(lp1359
g67
asVthreshold
p1360
(lp1361
g67
asVocarina
p1362
(lp1363
g21
asVslow
p1364
(lp1365
g21
asVratio
p1366
(lp1367
g16
asVtitle
p1368
(lp1369
g19
ag20
ag70
ag21
asVoutside
p1370
(lp1371
g11
asVcrime
p1372
(lp1373
g5
asVonly
p1374
(lp1375
g19
ag20
ag43
ag34
ag16
asVgoing
p1376
(lp1377
g5
asVbelieving
p1378
(lp1379
g5
asVget_rating_for_items
p1380
(lp1381
g19
ag20
asVawareness
p1382
(lp1383
g94
ag8
asVget_pathname
p1384
(lp1385
g28
ag29
asVget_resource_information
p1386
(lp1387
g28
ag29
asVclosed
p1388
(lp1389
g169
asVget
p1390
(lp1391
g28
ag29
ag70
ag94
ag5
ag21
ag11
ag67
ag16
asVfreezing
p1392
(lp1393
g21
asVuninvolved
p1394
(lp1395
g11
asVprogress
p1396
(lp1397
g32
asVsecondary
p1398
(lp1399
g8
asVdianna
p1400
(lp1401
g11
asVsettings
p1402
(lp1403
g21
asVstupid
p1404
(lp1405
g16
asVpredicted
p1406
(lp1407
g5
asVfinishing
p1408
(lp1409
g16
asVwhere
p1410
(lp1411
g32
ag21
ag33
ag11
ag34
ag67
asVvision
p1412
(lp1413
g34
asVsitmuli
p1414
(lp1415
g67
asVseau
p1416
(lp1417
g34
asVconnections
p1418
(lp1419
g8
asVasleep
p1420
(lp1421
g8
asVignores
p1422
(lp1423
g34
asVfails
p1424
(lp1425
g21
asVdetect
p1426
(lp1427
g34
ag67
asVways
p1428
(lp1429
g43
ag5
ag33
ag34
asVreview
p1430
(lp1431
g5
asVmaterials
p1432
(lp1433
g94
asVenough
p1434
(lp1435
g94
ag21
ag11
asVbetween
p1436
(lp1437
g32
ag5
ag67
ag16
asVadolescence
p1438
(lp1439
g32
asVacross
p1440
(lp1441
g32
asVnotice
p1442
(lp1443
g5
ag67
asVvertical
p1444
(lp1445
g21
asVparental
p1446
(lp1447
g19
ag20
ag11
asVscreen
p1448
(lp1449
g21
asVstyle
p1450
(lp1451
g21
ag11
asVcome
p1452
(lp1453
g11
asVreaction
p1454
(lp1455
g16
asVsterotypes
p1456
(lp1457
g5
asVmany
p1458
(lp1459
g32
ag5
ag8
ag67
ag16
asVregion
p1460
(lp1461
g28
ag29
asVworkplace
p1462
(lp1463
g43
asVfix
p1464
(lp1465
g19
ag20
ag21
asVcomes
p1466
(lp1467
g70
ag11
ag8
ag67
asVset_handle
p1468
(lp1469
g28
ag52
ag29
asVterse
p1470
(lp1471
g28
ag29
asVperiod
p1472
(lp1473
g32
ag16
asVlearning
p1474
(lp1475
g16
asVconstant
p1476
(lp1477
g5
asVextinct
p1478
(lp1479
g16
asVconsiders
p1480
(lp1481
g19
ag20
asVdestroyed
p1482
(lp1483
g34
asVcombines
p1484
(lp1485
g43
ag34
asV1589
p1486
(lp1487
g19
ag20
asVcycling
p1488
(lp1489
g19
ag20
asVmark
p1490
(lp1491
g21
asVworkshop
p1492
(lp1493
g94
asVreflex
p1494
(lp1495
g67
ag16
asVwants
p1496
(lp1497
g11
asVmotiviated
p1498
(lp1499
g16
asVinfluence
p1500
(lp1501
g32
asVobserve
p1502
(lp1503
g5
ag16
asVexternal
p1504
(lp1505
g5
asVcase
p1506
(lp1507
g5
asVthese
p1508
(lp1509
g19
ag20
ag70
ag5
ag11
asVexpertise
p1510
(lp1511
g11
asVslapping
p1512
(lp1513
g67
asVeventually
p1514
(lp1515
g67
asVmucus
p1516
(lp1517
g67
asVcharacteristics
p1518
(lp1519
g5
ag67
asVtelephone
p1520
(lp1521
g16
asVsleeping
p1522
(lp1523
g8
asVbias
p1524
(lp1525
g5
asVtechnology
p1526
(lp1527
g11
asVworry
p1528
(lp1529
g5
ag8
asVdifferent
p1530
(lp1531
g32
ag5
ag21
ag67
ag16
asVresentful
p1532
(lp1533
g11
asVparticipant
p1534
(lp1535
g5
asVdoctor
p1536
(lp1537
g5
asVpay
p1538
(lp1539
g43
ag5
ag11
ag34
asVsame
p1540
(lp1541
g19
ag20
ag32
ag11
ag16
asVshifts
p1542
(lp1543
g21
asVpad
p1544
(lp1545
g21
asVchainging
p1546
(lp1547
g21
asVevents
p1548
(lp1549
g94
ag5
asVstatus
p1550
(lp1551
g11
asVscreenshot
p1552
(lp1553
g21
asVdisadvantages
p1554
(lp1555
g11
asVhope_bee2bee
p1556
(lp1557
g94
asVness
p1558
(lp1559
g94
asVcymbal
p1560
(lp1561
g169
asVanecdotal
p1562
(lp1563
g5
asVclimbing
p1564
(lp1565
g5
asVprenatal
p1566
(lp1567
g32
asVtradition
p1568
(lp1569
g5
asVtracking
p1570
(lp1571
g11
asVmodes
p1572
(lp1573
g32
asVwithout
p1574
(lp1575
g19
ag20
ag21
ag8
ag16
asVinability
p1576
(lp1577
g8
asVmodel
p1578
(lp1579
g21
ag16
asVresearchers
p1580
(lp1581
g5
asVcharged
p1582
(lp1583
g5
asVbeing
p1584
(lp1585
g19
ag20
ag32
ag5
ag11
ag16
asVrest
p1586
(lp1587
g32
asVbehavioural
p1588
(lp1589
g33
ag34
asVspeed
p1590
(lp1591
g21
ag16
asVthinking
p1592
(lp1593
g11
ag16
asVrose
p1594
(lp1595
g11
asVseems
p1596
(lp1597
g16
asVinstrument
p1598
(lp1599
g21
asVlets
p1600
(lp1601
g11
asVsetting
p1602
(lp1603
g16
asVassociation
p1604
(lp1605
g16
asVsamples
p1606
(lp1607
g43
ag21
asVstyles
p1608
(lp1609
g11
ag16
asVaspects
p1610
(lp1611
g8
asVaround
p1612
(lp1613
g5
ag34
ag16
asVread
p1614
(lp1615
g28
ag29
asVgestures
p1616
(lp1617
g21
asVgrid
p1618
(lp1619
g21
asVpreference
p1620
(lp1621
g16
asVmom
p1622
(lp1623
g16
asVschedules
p1624
(lp1625
g16
asVworld
p1626
(lp1627
g32
ag11
asVsnare
p1628
(lp1629
g169
asVaccepted
p1630
(lp1631
g16
asVserver
p1632
(lp1633
g21
asVaudience
p1634
(lp1635
g94
asVoutput
p1636
(lp1637
g21
asVclap
p1638
(lp1639
g169
asVimages
p1640
(lp1641
g19
ag28
ag20
ag29
asVdevelopmental
p1642
(lp1643
g91
ag32
ag11
asVgenetics
p1644
(lp1645
g16
asVdimensions
p1646
(lp1647
g11
asVmemories
p1648
(lp1649
g8
asVstops
p1650
(lp1651
g16
asVmoon
p1652
(lp1653
g5
asVdeficit
p1654
(lp1655
g34
asVprovides
p1656
(lp1657
g11
asVbiased
p1658
(lp1659
g5
asVscientific
p1660
(lp1661
g5
asVbusiness
p1662
(lp1663
g94
asVretains
p1664
(lp1665
g19
ag20
asVdisablilities
p1666
(lp1667
g16
asV1938
p1668
(lp1669
g16
asVon
p1670
(lp1671
g19
ag28
ag20
ag29
ag70
ag43
ag32
ag5
ag21
ag33
ag11
ag34
ag8
ag67
ag16
asVstone
p1672
(lp1673
g32
asVorigins
p1674
(lp1675
g16
asVof
p1676
(lp1677
g19
ag28
ag20
ag29
ag43
ag94
ag32
ag5
ag21
ag33
ag11
ag34
ag8
ag67
ag16
asVbonding
p1678
(lp1679
g67
asVmixer
p1680
(lp1681
g21
asVmeal
p1682
(lp1683
g16
asVhypothalamus
p1684
(lp1685
g67
asVor
p1686
(lp1687
g19
ag28
ag20
ag29
ag70
ag43
ag32
ag5
ag8
ag67
asVburning
p1688
(lp1689
g34
asVfollows
p1690
(lp1691
g16
asVinstruments
p1692
(lp1693
g21
asVimage
p1694
(lp1695
g19
ag28
ag20
ag29
ag21
asVspinal
p1696
(lp1697
g67
asVinvolvement
p1698
(lp1699
g43
asVdetermine
p1700
(lp1701
g19
ag20
ag43
asVdragstart
p1702
(lp1703
g21
asVaction_type_play_playlist
p1704
(lp1705
g19
ag20
asVyour
p1706
(lp1707
g70
ag43
ag94
ag33
ag34
ag67
asVbuds
p1708
(lp1709
g67
asVlog
p1710
(lp1711
g21
asVaren
p1712
(lp1713
g32
ag21
ag16
asVassumed
p1714
(lp1715
g5
asVthere
p1716
(lp1717
g19
ag20
ag16
asVstrict
p1718
(lp1719
g11
asVdetectable
p1720
(lp1721
g67
asVlow
p1722
(lp1723
g169
ag21
ag33
ag11
ag34
ag16
asVstars
p1724
(lp1725
g5
asVsecretion
p1726
(lp1727
g16
asVquery_all_local_media_objects_for_media_hash
p1728
(lp1729
g52
asVinadvertant
p1730
(lp1731
g5
asVtrying
p1732
(lp1733
g5
asVwith
p1734
(lp1735
g19
ag28
ag20
ag29
ag70
ag43
ag32
ag5
ag21
ag11
ag34
ag67
ag16
asVlonger
p1736
(lp1737
g16
asVdefault
p1738
(lp1739
g28
ag29
asVpalcebo
p1740
(lp1741
g5
asVtones
p1742
(lp1743
g67
asVflats
p1744
(lp1745
g21
asVbeliefs
p1746
(lp1747
g32
ag11
asVexpect
p1748
(lp1749
g11
asVstrongly
p1750
(lp1751
g32
asVtaste
p1752
(lp1753
g67
asVcertain
p1754
(lp1755
g32
asVphylogenetic
p1756
(lp1757
g32
asVmoved
p1758
(lp1759
g32
asVgeneral
p1760
(lp1761
g19
ag20
ag16
asVas
p1762
(lp1763
g43
ag94
ag32
ag5
ag21
ag33
ag11
ag34
ag67
ag16
asVintro
p1764
(lp1765
g43
asVat
p1766
(lp1767
g43
ag32
ag21
ag11
ag34
ag67
ag16
asVfile
p1768
(lp1769
g19
ag28
ag20
ag29
ag21
asVplayehead
p1770
(lp1771
g21
asVwatched
p1772
(lp1773
g5
asVmoves
p1774
(lp1775
g21
ag8
asVfill
p1776
(lp1777
g28
ag29
asVagain
p1778
(lp1779
g28
ag29
ag67
ag16
asVtodo
p1780
(lp1781
g19
ag20
ag21
asVnurutre
p1782
(lp1783
g32
asVfield
p1784
(lp1785
g43
asVyou
p1786
(lp1787
g19
ag20
ag70
ag94
ag32
ag5
ag21
ag33
ag11
ag34
ag8
ag67
ag16
asVauthoritarian
p1788
(lp1789
g11
asVdiaries
p1790
(lp1791
g43
asVstudents
p1792
(lp1793
g16
asVtime
p1794
(lp1795
g43
ag32
ag21
ag33
ag11
ag34
ag16
asVhawthorne
p1796
(lp1797
g5
asVtbis
p1798
(lp1799
g34
asVattentional
p1800
(lp1801
g34
asVimportant
p1802
(lp1803
g43
ag67
asVnucleus
p1804
(lp1805
g8
asVsuited
p1806
(lp1807
g67
asVincluded
p1808
(lp1809
g19
ag20
asVcalls
p1810
(lp1811
g52
asVcontroller
p1812
(lp1813
g21
asVweek
p1814
(lp1815
g43
asVcpp
p1816
(lp1817
g19
ag28
ag20
ag29
asVresolution
p1818
(lp1819
g33
ag34
asVall
p1820
(lp1821
g19
ag20
ag16
asVconsider
p1822
(lp1823
g11
asVcaused
p1824
(lp1825
g5
asVlack
p1826
(lp1827
g11
asVmonth
p1828
(lp1829
g94
asVdisk
p1830
(lp1831
g28
ag52
ag29
asVchildren
p1832
(lp1833
g11
ag34
ag8
asVcauses
p1834
(lp1835
g21
ag8
ag67
ag16
asVresponsiveness
p1836
(lp1837
g11
asVtv
p1838
(lp1839
g16
asVextraneous
p1840
(lp1841
g16
asVto
p1842
(lp1843
g19
ag28
ag20
ag29
ag70
ag43
ag94
ag32
ag5
ag21
ag33
ag11
ag34
ag8
ag67
ag16
asVprogram
p1844
(lp1845
g5
asVsiblings
p1846
(lp1847
g67
ag16
asVactivities
p1848
(lp1849
g11
asVworse
p1850
(lp1851
g5
asVvery
p1852
(lp1853
g11
ag8
ag16
asVfat
p1854
(lp1855
g32
asVcoloured
p1856
(lp1857
g11
asVdiary
p1858
(lp1859
g43
asVticket
p1860
(lp1861
g16
asVdifference
p1862
(lp1863
g67
asVneurological
p1864
(lp1865
g33
ag34
asVstimulus
p1866
(lp1867
g67
ag16
asVageing
p1868
(lp1869
g33
ag11
ag34
asVlist
p1870
(lp1871
g94
asVhyp
p1872
(lp1873
g5
asVsmall
p1874
(lp1875
g43
asVbiological
p1876
(lp1877
g32
asV10802
p1878
(lp1879
g19
ag20
asVrats
p1880
(lp1881
g8
ag16
asVhealed
p1882
(lp1883
g8
asVpast
p1884
(lp1885
g16
asVtitles
p1886
(lp1887
g21
asVdesign
p1888
(lp1889
g43
asV_psychological_
p1890
(lp1891
g11
asVbelief
p1892
(lp1893
g32
ag11
asVcursor
p1894
(lp1895
g70
asVwhat
p1896
(lp1897
g43
ag5
ag33
ag11
ag34
ag67
ag16
asVcilia
p1898
(lp1899
g67
asVcues
p1900
(lp1901
g5
asVclock
p1902
(lp1903
g8
asVsun
p1904
(lp1905
g5
asVlearner
p1906
(lp1907
g16
asVoverload
p1908
(lp1909
g21
asVget_user_bookmark_from_handle
p1910
(lp1911
g52
asVmethod
p1912
(lp1913
g5
asVmovement
p1914
(lp1915
g21
ag16
asVfull
p1916
(lp1917
g32
ag5
asVranges
p1918
(lp1919
g11
asVshouldn
p1920
(lp1921
g19
ag20
asVinvestigating
p1922
(lp1923
g16
asVstrong
p1924
(lp1925
g67
asVshops
p1926
(lp1927
g34
asVdisorders
p1928
(lp1929
g34
ag8
asVinspired
p1930
(lp1931
g11
asVexperience
p1932
(lp1933
g43
ag5
ag67
ag16
asVamount
p1934
(lp1935
g32
ag16
asVsocial
p1936
(lp1937
g94
ag32
asVaction
p1938
(lp1939
g19
ag28
ag20
ag29
ag16
asVnarrow
p1940
(lp1941
g32
asVvim
p1942
(lp1943
g70
asVask
p1944
(lp1945
g43
ag32
ag11
ag34
asVextinction
p1946
(lp1947
g16
asVestablish
p1948
(lp1949
g5
asVdetecting
p1950
(lp1951
g67
asVselect
p1952
(lp1953
g21
asVeye
p1954
(lp1955
g11
asVselection_handle
p1956
(lp1957
g28
ag29
asVdistinct
p1958
(lp1959
g16
asVcontains
p1960
(lp1961
g19
ag20
asVtwo
p1962
(lp1963
g43
ag32
ag5
ag67
asVcomparing
p1964
(lp1965
g32
asVsplash
p1966
(lp1967
g169
asVintuitiveness
p1968
(lp1969
g43
asVmore
p1970
(lp1971
g43
ag32
ag5
ag21
ag11
ag67
ag16
asVflat
p1972
(lp1973
g21
asVcompany
p1974
(lp1975
g5
asVinstrumental
p1976
(lp1977
g16
asVsubconcious
p1978
(lp1979
g34
asVparticular
p1980
(lp1981
g5
asV424
p1982
(lp1983
g19
ag20
asVnone
p1984
(lp1985
g5
asVindicating
p1986
(lp1987
g19
ag20
asVevolved
p1988
(lp1989
g32
asVlearn
p1990
(lp1991
g16
asVplayable
p1992
(lp1993
g19
ag20
asV2yr
p1994
(lp1995
g32
asVdef
p1996
(lp1997
g32
asVshare
p1998
(lp1999
g5
asVstates
p2000
(lp2001
g32
asV3yr
p2002
(lp2003
g32
asVset_selection
p2004
(lp2005
g52
asVnumbers
p2006
(lp2007
g32
asVsense
p2008
(lp2009
g5
ag34
ag67
asVoffspring
p2010
(lp2011
g67
asVtransduction
p2012
(lp2013
g67
asVinformation
p2014
(lp2015
g11
ag34
ag8
ag16
asVneeds
p2016
(lp2017
g11
asVgoal
p2018
(lp2019
g43
ag5
asVacts
p2020
(lp2021
g8
asVinfluences
p2022
(lp2023
g16
asVspeeding
p2024
(lp2025
g16
asVbefore
p2026
(lp2027
g32
ag21
ag11
ag67
ag16
asVplay_scene
p2028
(lp2029
g52
asVconfounding
p2030
(lp2031
g5
asVtries
p2032
(lp2033
g20
ag5
asVdisable
p2034
(lp2035
g21
asVff
p2036
(lp2037
g21
asVcoming
p2038
(lp2039
g67
asVdevelop
p2040
(lp2041
g32
ag33
ag34
asVhorizontal
p2042
(lp2043
g21
asVresponse
p2044
(lp2045
g5
ag67
ag16
asVdeteriation
p2046
(lp2047
g8
asV_biological_
p2048
(lp2049
g11
asVdocumentation
p2050
(lp2051
g70
asVmedia
p2052
(lp2053
g19
ag28
ag20
ag29
ag94
asVplaying
p2054
(lp2055
g21
asVinfant
p2056
(lp2057
g67
asVplay_item_id
p2058
(lp2059
g28
ag29
asVhelp
p2060
(lp2061
g5
ag21
ag11
asVdeveloped
p2062
(lp2063
g32
ag16
asVdisabled
p2064
(lp2065
g21
asVthrough
p2066
(lp2067
g19
ag20
ag11
asVcommittee
p2068
(lp2069
g5
asVcommitted
p2070
(lp2071
g34
asVaccidentals
p2072
(lp2073
g21
asVits
p2074
(lp2075
g32
ag8
ag67
asV24
p2076
(lp2077
g33
ag34
asV26
p2078
(lp2079
g8
asV20
p2080
(lp2081
g34
asV22
p2082
(lp2083
g91
ag11
asV29
p2084
(lp2085
g67
asVactually
p2086
(lp2087
g19
ag20
ag67
asVsymptoms
p2088
(lp2089
g34
asVdetected
p2090
(lp2091
g67
asVpcl
p2092
(lp2093
g19
ag28
ag20
ag29
asVmight
p2094
(lp2095
g32
ag11
asVgood
p2096
(lp2097
g43
ag5
asVreturn
p2098
(lp2099
g19
ag20
asVfood
p2100
(lp2101
g16
asVreflected
p2102
(lp2103
g19
ag20
asVframework
p2104
(lp2105
g21
asVmilestone
p2106
(lp2107
g32
asVbigger
p2108
(lp2109
g21
ag16
asVmystery
p2110
(lp2111
g8
asValways
p2112
(lp2113
g19
ag20
ag5
ag11
asVpresented
p2114
(lp2115
g5
ag16
asVsomeone
p2116
(lp2117
g16
asVuploads
p2118
(lp2119
g21
asVfound
p2120
(lp2121
g16
asVnotes
p2122
(lp2123
g19
ag20
ag70
ag21
asVheavy
p2124
(lp2125
g5
asVreactions
p2126
(lp2127
g94
asVmental
p2128
(lp2129
g32
asVweight
p2130
(lp2131
g5
asVhouse
p2132
(lp2133
g34
asVhard
p2134
(lp2135
g21
ag34
asVreduce
p2136
(lp2137
g5
asVidea
p2138
(lp2139
g11
asVconnect
p2140
(lp2141
g21
asVloops
p2142
(lp2143
g21
asVblues
p2144
(lp2145
g21
asVextereme
p2146
(lp2147
g67
asVbackpacks
p2148
(lp2149
g5
asVevent
p2150
(lp2151
g94
asVreally
p2152
(lp2153
g32
asVpsychology
p2154
(lp2155
g91
ag32
ag11
asVsince
p2156
(lp2157
g5
asVresearch
p2158
(lp2159
g43
ag32
ag5
ag33
ag11
ag34
asVsoundengine
p2160
(lp2161
g21
asVparticipants
p2162
(lp2163
g5
asVprint
p2164
(lp2165
g5
asVlearners
p2166
(lp2167
g16
asVissue
p2168
(lp2169
g21
asVoccurs
p2170
(lp2171
g32
asVbass
p2172
(lp2173
g169
asVoffsets
p2174
(lp2175
g21
asVtimeline
p2176
(lp2177
g21
asVreason
p2178
(lp2179
g5
ag16
asVconditioning
p2180
(lp2181
g16
asVmembers
p2182
(lp2183
g32
asVput
p2184
(lp2185
g32
ag11
asVgenerate
p2186
(lp2187
g5
asVlaunch
p2188
(lp2189
g21
asVrmi_invalid_rating
p2190
(lp2191
g19
ag20
asVsuccess
p2192
(lp2193
g43
asVkaleidescape
p2194
(lp2195
g19
ag20
asVconcussion
p2196
(lp2197
g34
asVmajor
p2198
(lp2199
g67
asVunhealthy
p2200
(lp2201
g33
ag34
asVprobability
p2202
(lp2203
g11
asVfeel
p2204
(lp2205
g11
ag16
asVmisc
p2206
(lp2207
g21
asVnumber
p2208
(lp2209
g28
ag29
ag21
ag16
asVdone
p2210
(lp2211
g21
asVblank
p2212
(lp2213
g32
asVstory
p2214
(lp2215
g5
ag11
asVscript
p2216
(lp2217
g19
ag28
ag20
ag29
asVinteract
p2218
(lp2219
g32
asVobedience
p2220
(lp2221
g11
asVpassed
p2222
(lp2223
g16
asVglomeruli
p2224
(lp2225
g67
asVstore
p2226
(lp2227
g19
ag20
asVimmediate
p2228
(lp2229
g94
ag21
asVpart
p2230
(lp2231
g8
ag67
asV1913
p2232
(lp2233
g16
asVbelieve
p2234
(lp2235
g32
asVjohn
p2236
(lp2237
g16
asVdetermines
p2238
(lp2239
g19
ag20
asVdouble
p2240
(lp2241
g5
ag21
asVgrey
p2242
(lp2243
g21
asVyouth
p2244
(lp2245
g11
asVdetermined
p2246
(lp2247
g5
asVintensities
p2248
(lp2249
g67
asVsupposed
p2250
(lp2251
g5
asVmotivation
p2252
(lp2253
g16
asVages
p2254
(lp2255
g32
asVsensorimotor
p2256
(lp2257
g32
asVnull
p2258
(lp2259
g5
asVorgans
p2260
(lp2261
g67
asVsharps
p2262
(lp2263
g21
asVdepending
p2264
(lp2265
g21
ag67
asVself
p2266
(lp2267
g70
asVthiamin
p2268
(lp2269
g16
asVonset
p2270
(lp2271
g8
ag16
asVmajority
p2272
(lp2273
g43
asVrecognizing
p2274
(lp2275
g34
asVperminance
p2276
(lp2277
g32
asVbuild
p2278
(lp2279
g19
ag20
ag8
asVplay
p2280
(lp2281
g19
ag28
ag52
ag20
ag29
ag32
ag21
ag11
ag67
asVtowards
p2282
(lp2283
g16
asVnasal
p2284
(lp2285
g67
asVmedia_guide
p2286
(lp2287
g52
asVreact
p2288
(lp2289
g67
asVmost
p2290
(lp2291
g43
ag32
ag11
ag8
ag67
asVexperiences
p2292
(lp2293
g67
asVplan
p2294
(lp2295
g94
asVbug
p2296
(lp2297
g21
asVwindows
p2298
(lp2299
g21
asVclear
p2300
(lp2301
g21
ag11
asVsometimes
p2302
(lp2303
g21
asVcover
p2304
(lp2305
g19
ag28
ag20
ag29
asVvitmain
p2306
(lp2307
g5
asVtraditional
p2308
(lp2309
g94
asVclean
p2310
(lp2311
g21
asVvelocity
p2312
(lp2313
g94
asVthink
p2314
(lp2315
g32
ag11
asVparticularly
p2316
(lp2317
g11
asVphenomenon
p2318
(lp2319
g5
ag16
asVtestimonails
p2320
(lp2321
g94
asVrelation
p2322
(lp2323
g94
asVoctaves
p2324
(lp2325
g21
asVfine
p2326
(lp2327
g5
asVfind
p2328
(lp2329
g5
ag21
asVsys_10802
p2330
(lp2331
g28
ag29
asVaccess
p2332
(lp2333
g94
ag21
asVindicator
p2334
(lp2335
g21
asVcausality
p2336
(lp2337
g5
asVparameters
p2338
(lp2339
g43
asVnervous
p2340
(lp2341
g67
asVsanitize
p2342
(lp2343
g28
ag29
asVfactor
p2344
(lp2345
g8
asVoverride
p2346
(lp2347
g19
ag20
asVdarwin
p2348
(lp2349
g32
asVhis
p2350
(lp2351
g32
asVtriangle
p2352
(lp2353
g169
asVdependent
p2354
(lp2355
g5
ag21
asVfeels
p2356
(lp2357
g67
asVactions
p2358
(lp2359
g16
asVclosely
p2360
(lp2361
g67
asVduring
p2362
(lp2363
g32
ag5
ag21
ag8
asVbanner
p2364
(lp2365
g94
asVblogging
p2366
(lp2367
g94
asVadulthood
p2368
(lp2369
g32
asVdo_until
p2370
(lp2371
g28
ag29
asVremove
p2372
(lp2373
g28
ag29
ag21
asVperfume
p2374
(lp2375
g67
asVinvestigate
p2376
(lp2377
g21
asVcommon
p2378
(lp2379
g5
ag34
asVactivity
p2380
(lp2381
g21
ag33
ag34
ag16
asVbars
p2382
(lp2383
g21
asVset
p2384
(lp2385
g19
ag28
ag20
ag29
ag5
ag21
ag16
asVart
p2386
(lp2387
g19
ag28
ag20
ag29
asVstartup
p2388
(lp2389
g43
asVscenes
p2390
(lp2391
g19
ag52
ag20
asVculture
p2392
(lp2393
g11
asVsee
p2394
(lp2395
g19
ag28
ag20
ag29
ag32
ag5
ag8
ag67
asVindividual
p2396
(lp2397
g19
ag20
ag43
ag32
ag5
ag11
asVare
p2398
(lp2399
g19
ag20
ag32
ag5
ag11
ag34
ag67
asVseo
p2400
(lp2401
g94
asVexpert
p2402
(lp2403
g5
asVmovie
p2404
(lp2405
g19
ag52
ag20
asVpositivity
p2406
(lp2407
g11
asVcurrently
p2408
(lp2409
g19
ag20
asVsmallest
p2410
(lp2411
g67
asVburned
p2412
(lp2413
g8
asVcancelling
p2414
(lp2415
g21
asVcreating
p2416
(lp2417
g19
ag20
ag21
asVattention
p2418
(lp2419
g43
ag5
ag11
ag34
ag8
ag67
ag16
asVopposition
p2420
(lp2421
g32
asVbronze
p2422
(lp2423
g32
asVboth
p2424
(lp2425
g19
ag20
ag32
ag5
asVlast
p2426
(lp2427
g21
ag34
asVinfluential
p2428
(lp2429
g11
asVimproves
p2430
(lp2431
g8
asVgamblers
p2432
(lp2433
g5
asVlet
p2434
(lp2435
g43
ag21
asVexperimental
p2436
(lp2437
g5
asVload
p2438
(lp2439
g28
ag20
ag29
ag21
asVflies
p2440
(lp2441
g21
asVpoint
p2442
(lp2443
g67
asVwhatever
p2444
(lp2445
g11
asVchangers
p2446
(lp2447
g21
asVthroughout
p2448
(lp2449
g67
asVheadaches
p2450
(lp2451
g34
asVps
p2452
(lp2453
g94
asVperspectives
p2454
(lp2455
g32
ag11
asVdescript_playitem
p2456
(lp2457
g52
asVcreate
p2458
(lp2459
g19
ag20
ag43
ag21
asVcreativity
p2460
(lp2461
g43
asVdue
p2462
(lp2463
g28
ag29
ag32
ag5
ag11
ag16
asVconfirmatory
p2464
(lp2465
g5
asVmaintenance
p2466
(lp2467
g8
asVsynth
p2468
(lp2469
g21
asVfire
p2470
(lp2471
g67
asV39
p2472
(lp2473
g169
asVelse
p2474
(lp2475
g67
asVusage
p2476
(lp2477
g21
asVunderstand
p2478
(lp2479
g32
ag11
ag16
asVsystematic
p2480
(lp2481
g5
asVdemand
p2482
(lp2483
g5
asVlook
p2484
(lp2485
g28
ag29
ag5
ag11
asVempirical
p2486
(lp2487
g5
asVwhile
p2488
(lp2489
g5
ag21
ag16
asVhomework
p2490
(lp2491
g16
asVanimated
p2492
(lp2493
g21
asVloop
p2494
(lp2495
g21
asVcostly
p2496
(lp2497
g19
ag20
asVdemos
p2498
(lp2499
g67
asVitself
p2500
(lp2501
g8
asVready
p2502
(lp2503
g70
asVoverlayed
p2504
(lp2505
g67
asVfibers
p2506
(lp2507
g67
asVhigher
p2508
(lp2509
g5
asVdevelopment
p2510
(lp2511
g32
ag11
asVused
p2512
(lp2513
g19
ag20
ag11
ag67
asVkeys
p2514
(lp2515
g21
asVassignment
p2516
(lp2517
g5
asValert
p2518
(lp2519
g21
asVsys
p2520
(lp2521
g19
ag20
asVflurry
p2522
(lp2523
g21
asVlevels
p2524
(lp2525
g5
ag21
ag16
asVpurpose
p2526
(lp2527
g5
asVtask
p2528
(lp2529
g16
asVolder
p2530
(lp2531
g11
ag8
asVsalvation
p2532
(lp2533
g16
asVbounces
p2534
(lp2535
g67
asVselection_play_items
p2536
(lp2537
g52
asVobviously
p2538
(lp2539
g20
asVconcrete
p2540
(lp2541
g32
asVorganization
p2542
(lp2543
g8
asVknow
p2544
(lp2545
g43
ag5
ag11
asVbreastfeeding
p2546
(lp2547
g16
asVshape
p2548
(lp2549
g32
asVusing
p2550
(lp2551
g32
ag21
asVuseful
p2552
(lp2553
g8
asVinjuries
p2554
(lp2555
g34
asVloading
p2556
(lp2557
g19
ag28
ag20
ag29
ag21
asVconclusions
p2558
(lp2559
g5
ag11
asValternate
p2560
(lp2561
g5
asVsignals
p2562
(lp2563
g67
asVsource
p2564
(lp2565
g67
asVcue
p2566
(lp2567
g28
ag29
asVsubjects
p2568
(lp2569
g5
asVparents
p2570
(lp2571
g11
ag16
asVlocation
p2572
(lp2573
g21
asVsnap
p2574
(lp2575
g21
asVunplayable
p2576
(lp2577
g19
ag28
ag20
ag29
asVset_names
p2578
(lp2579
g52
asVbig
p2580
(lp2581
g8
asVshowing
p2582
(lp2583
g19
ag20
asVdamage
p2584
(lp2585
g34
asVprojects
p2586
(lp2587
g21
asVformal
p2588
(lp2589
g32
asVrotate
p2590
(lp2591
g5
asVcognitive
p2592
(lp2593
g32
ag33
ag11
ag34
ag8
ag16
asVshould
p2594
(lp2595
g20
asVsignal
p2596
(lp2597
g67
asVparietal
p2598
(lp2599
g34
ag67
asVcollect
p2600
(lp2601
g43
asVindividuals
p2602
(lp2603
g32
asVtranslated
p2604
(lp2605
g19
ag20
asVeeg
p2606
(lp2607
g33
ag34
asVdisorder
p2608
(lp2609
g8
asVmethods
p2610
(lp2611
g94
ag5
asVsoma
p2612
(lp2613
g67
asVcreation
p2614
(lp2615
g21
asVunloved
p2616
(lp2617
g11
asVback
p2618
(lp2619
g11
ag8
asVeconomic
p2620
(lp2621
g32
asVscale
p2622
(lp2623
g21
asVdebrief
p2624
(lp2625
g43
asVtools
p2626
(lp2627
g21
asVthough
p2628
(lp2629
g32
ag11
asVnovelty
p2630
(lp2631
g5
asVper
p2632
(lp2633
g52
ag11
ag67
asVbehave
p2634
(lp2635
g5
ag33
ag34
asVanne
p2636
(lp2637
g11
asVbe
p2638
(lp2639
g19
ag20
ag70
ag94
ag5
ag8
ag16
asVeating
p2640
(lp2641
g16
asVreach
p2642
(lp2643
g21
asVjumps
p2644
(lp2645
g21
asVstep
p2646
(lp2647
g19
ag28
ag52
ag20
ag29
asVpostnatal
p2648
(lp2649
g32
asVfrom
p2650
(lp2651
g28
ag29
ag32
ag5
ag21
ag11
ag8
ag67
ag16
asVintense
p2652
(lp2653
g8
asVunused
p2654
(lp2655
g21
asVchanging
p2656
(lp2657
g21
ag33
ag11
ag34
asVrange
p2658
(lp2659
g21
asVrepair
p2660
(lp2661
g8
asVimitation
p2662
(lp2663
g16
asVinto
p2664
(lp2665
g19
ag20
ag32
ag11
ag34
ag8
asVget_media_handle_from_media_hash
p2666
(lp2667
g28
ag52
ag29
asVcanal
p2668
(lp2669
g67
asVrows
p2670
(lp2671
g21
asVspan
p2672
(lp2673
g32
asVclassical
p2674
(lp2675
g16
asVlong
p2676
(lp2677
g43
ag94
ag32
ag11
ag8
ag16
asVanalyze
p2678
(lp2679
g43
ag5
ag21
asVopens
p2680
(lp2681
g21
asVproperly
p2682
(lp2683
g20
asVdelta
p2684
(lp2685
g67
asVline
p2686
(lp2687
g21
asVjunior
p2688
(lp2689
g34
asVinfo
p2690
(lp2691
g19
ag20
ag21
ag8
asVmedia_hash
p2692
(lp2693
g28
ag29
asVup
p2694
(lp2695
g19
ag28
ag20
ag29
ag32
ag5
ag21
ag11
ag8
ag16
asVus
p2696
(lp2697
g19
ag20
ag67
asVui
p2698
(lp2699
g21
asVmature
p2700
(lp2701
g11
asVaversion
p2702
(lp2703
g16
asVsimilar
p2704
(lp2705
g16
asVbell
p2706
(lp2707
g16
asVstoring
p2708
(lp2709
g20
asVassociated
p2710
(lp2711
g19
ag20
asVunsafe
p2712
(lp2713
g19
ag20
asVaccessibility
p2714
(lp2715
g43
asVdoesn
p2716
(lp2717
g43
ag5
ag11
ag34
ag8
ag16
asVduration
p2718
(lp2719
g16
asVsingle
p2720
(lp2721
g5
ag21
asVwarning
p2722
(lp2723
g21
asVsteeper
p2724
(lp2725
g5
asVfixing
p2726
(lp2727
g43
asVelectrical
p2728
(lp2729
g67
asVdraw
p2730
(lp2731
g5
ag21
ag11
asVusers
p2732
(lp2733
g43
asVprovided
p2734
(lp2735
g16
asVproblems
p2736
(lp2737
g43
asVhelpful
p2738
(lp2739
g94
asVdrag
p2740
(lp2741
g21
asVsuppression
p2742
(lp2743
g16
asVage
p2744
(lp2745
g32
ag33
ag11
ag34
asVrequired
p2746
(lp2747
g28
ag29
asVbacked
p2748
(lp2749
g5
asVvisual
p2750
(lp2751
g8
asVdepth
p2752
(lp2753
g43
asVscroll
p2754
(lp2755
g21
asVonce
p2756
(lp2757
g94
ag21
asVcode
p2758
(lp2759
g21
asVresults
p2760
(lp2761
g43
ag5
ag16
asVgf
p2762
(lp2763
g70
asVtoggle
p2764
(lp2765
g21
asVgo
p2766
(lp2767
g94
ag11
ag8
ag16
asVissues
p2768
(lp2769
g19
ag28
ag20
ag29
asVinstrument_none
p2770
(lp2771
g21
asVyoung
p2772
(lp2773
g32
ag11
asVsend
p2774
(lp2775
g67
asVhelps
p2776
(lp2777
g5
asVlate
p2778
(lp2779
g16
asVresources
p2780
(lp2781
g11
asVuninitialized
p2782
(lp2783
g21
asVlabels
p2784
(lp2785
g21
asVcontinues
p2786
(lp2787
g21
asVphenotypes
p2788
(lp2789
g32
asVwave
p2790
(lp2791
g67
asVcellular
p2792
(lp2793
g34
asVcontinued
p2794
(lp2795
g91
ag5
ag11
asVentire
p2796
(lp2797
g19
ag20
asVgender
p2798
(lp2799
g5
asVbutton
p2800
(lp2801
g21
asVtry
p2802
(lp2803
g28
ag29
asVsalivation
p2804
(lp2805
g16
asVdeleting
p2806
(lp2807
g21
asVpicker
p2808
(lp2809
g21
asVpretend
p2810
(lp2811
g32
asVsensation
p2812
(lp2813
g8
ag67
asVjump
p2814
(lp2815
g70
ag21
asVvideo
p2816
(lp2817
g43
ag21
asVbooth
p2818
(lp2819
g94
asVpicked
p2820
(lp2821
g70
asVmanipulating
p2822
(lp2823
g32
asVindex
p2824
(lp2825
g20
asVshowcase
p2826
(lp2827
g43
asVscreenshots
p2828
(lp2829
g21
asVcell
p2830
(lp2831
g67
asVpaying
p2832
(lp2833
g67
asVexperiment
p2834
(lp2835
g5
ag11
ag34
ag16
asVbody
p2836
(lp2837
g8
ag67
asVimpact
p2838
(lp2839
g43
asVfocuses
p2840
(lp2841
g43
asVspacing
p2842
(lp2843
g21
asVdesired
p2844
(lp2845
g28
ag29
ag16
asVexplore
p2846
(lp2847
g5
asVobjects
p2848
(lp2849
g32
ag34
asVfocused
p2850
(lp2851
g11
ag67
asVoctave
p2852
(lp2853
g21
asVothers
p2854
(lp2855
g11
asVnurture
p2856
(lp2857
g32
asVconvert
p2858
(lp2859
g21
asV38
p2860
(lp2861
g169
ag8
asVinvolved
p2862
(lp2863
g16
asVlarger
p2864
(lp2865
g21
asV37
p2866
(lp2867
g169
asV36
p2868
(lp2869
g169
asV35
p2870
(lp2871
g16
asVimplement
p2872
(lp2873
g21
asVmakes
p2874
(lp2875
g8
asVscales
p2876
(lp2877
g21
asV334
p2878
(lp2879
g19
ag20
asVapp
p2880
(lp2881
g21
asVprivate
p2882
(lp2883
g21
asVoutcomes
p2884
(lp2885
g11
asVnames
p2886
(lp2887
g21
asVanomalies
p2888
(lp2889
g5
asVredo
p2890
(lp2891
g21
asVcausal
p2892
(lp2893
g11
asVuse
p2894
(lp2895
g70
ag43
ag33
ag34
asVfeb
p2896
(lp2897
g8
ag16
asVduplicate
p2898
(lp2899
g28
ag29
asVexamination
p2900
(lp2901
g16
asV_closed_
p2902
(lp2903
g34
asVtouched
p2904
(lp2905
g32
asVsort
p2906
(lp2907
g28
ag29
asVstarted
p2908
(lp2909
g70
ag16
asVbandura
p2910
(lp2911
g16
asVbodily
p2912
(lp2913
g34
asVtransient
p2914
(lp2915
g8
asVdetects
p2916
(lp2917
g67
asVcustomer
p2918
(lp2919
g94
asVballs
p2920
(lp2921
g67
asVanimals
p2922
(lp2923
g33
ag34
asVthis
p2924
(lp2925
g19
ag20
ag5
ag11
ag67
ag16
asVride
p2926
(lp2927
g169
asVreproduce
p2928
(lp2929
g19
ag20
asVanywhere
p2930
(lp2931
g21
asV_changes_
p2932
(lp2933
g67
asVmeet
p2934
(lp2935
g19
ag20
asVpedagogy
p2936
(lp2937
g11
asVdissolve
p2938
(lp2939
g67
asVanthropological
p2940
(lp2941
g32
asVcontrol
p2942
(lp2943
g19
ag20
ag16
asVtap
p2944
(lp2945
g21
asVprocess
p2946
(lp2947
g8
asVhigh
p2948
(lp2949
g169
ag21
ag33
ag11
ag34
asVsomething
p2950
(lp2951
g19
ag20
ag32
ag11
ag67
ag16
asVtab
p2952
(lp2953
g19
ag20
asVvaried
p2954
(lp2955
g16
asVoccipital
p2956
(lp2957
g34
asVanimal
p2958
(lp2959
g33
ag34
ag16
asVinstead
p2960
(lp2961
g21
ag67
asVinstinctively
p2962
(lp2963
g16
asVpanic
p2964
(lp2965
g8
asVprofile
p2966
(lp2967
g21
asVcupboard
p2968
(lp2969
g11
asVoverridden
p2970
(lp2971
g19
ag20
asVstop
p2972
(lp2973
g21
ag16
asVtied
p2974
(lp2975
g8
ag67
asVfatigue
p2976
(lp2977
g34
asVhashes
p2978
(lp2979
g19
ag20
asVambiguous
p2980
(lp2981
g67
asVlight
p2982
(lp2983
g67
asVlines
p2984
(lp2985
g21
asVallow
p2986
(lp2987
g19
ag20
ag21
asVtransitivity
p2988
(lp2989
g32
asVjira
p2990
(lp2991
g19
ag20
asVevolutionary
p2992
(lp2993
g32
asVinstitutional
p2994
(lp2995
g5
asVmove
p2996
(lp2997
g21
ag67
asVsalivating
p2998
(lp2999
g16
asVsymbols
p3000
(lp3001
g32
asVlooping
p3002
(lp3003
g28
ag29
ag21
asVrendered
p3004
(lp3005
g21
asVincluding
p3006
(lp3007
g20
asVinstinctive
p3008
(lp3009
g67
asVarrangement
p3010
(lp3011
g32
asVhtls_database
p3012
(lp3013
g20
asVtemporal
p3014
(lp3015
g33
ag34
ag67
asVfill_in_user_scene
p3016
(lp3017
g52
asVemails
p3018
(lp3019
g94
asV2013
p3020
(lp3021
g91
asVcrash
p3022
(lp3023
g169
ag21
asVgreater
p3024
(lp3025
g11
asVauto
p3026
(lp3027
g21
asVhands
p3028
(lp3029
g67
asVday
p3030
(lp3031
g8
ag16
asVliteracy
p3032
(lp3033
g32
asVbrocolli
p3034
(lp3035
g32
asVhallmarks
p3036
(lp3037
g11
asVedit
p3038
(lp3039
g21
asVnfl
p3040
(lp3041
g34
asVmode
p3042
(lp3043
g70
ag21
asVtruth
p3044
(lp3045
g11
asVtray
p3046
(lp3047
g16
asVglasses
p3048
(lp3049
g32
ag11
asVdoing
p3050
(lp3051
g16
asVproduct
p3052
(lp3053
g43
ag94
asVrelated
p3054
(lp3055
g32
asVfrequency
p3056
(lp3057
g67
asVmeasure
p3058
(lp3059
g5
ag33
ag34
asV82
p3060
(lp3061
g169
asVlesion
p3062
(lp3063
g33
ag34
asV80
p3064
(lp3065
g67
asV81
p3066
(lp3067
g169
asVout
p3068
(lp3069
g94
ag21
ag11
ag16
asVirritability
p3070
(lp3071
g34
asVreload
p3072
(lp3073
g21
asVres
p3074
(lp3075
g21
asVbehaviours
p3076
(lp3077
g94
asVmate
p3078
(lp3079
g67
asVperforms
p3080
(lp3081
g16
asVrem
p3082
(lp3083
g8
asVsupports
p3084
(lp3085
g5
asVred
p3086
(lp3087
g11
asVworkflow
p3088
(lp3089
g19
ag28
ag20
ag29
asVundo
p3090
(lp3091
g21
asVinteraction
p3092
(lp3093
g67
asVmidi
p3094
(lp3095
g21
asVdetermining
p3096
(lp3097
g19
ag20
asVroute
p3098
(lp3099
g21
asVkeep
p3100
(lp3101
g5
asVscene
p3102
(lp3103
g28
ag52
ag29
asVreaches
p3104
(lp3105
g67
asVstrategic
p3106
(lp3107
g94
asVsupercharismatic
p3108
(lp3109
g8
asVplaylist
p3110
(lp3111
g19
ag28
ag20
ag29
asVstart
p3112
(lp3113
g21
ag67
asVordering
p3114
(lp3115
g21
asVjournals
p3116
(lp3117
g5
asVsystem
p3118
(lp3119
g8
ag67
asVpercussion
p3120
(lp3121
g169
ag21
asVexplanation
p3122
(lp3123
g5
ag21
asVexactly
p3124
(lp3125
g16
asVslides
p3126
(lp3127
g8
asVenvironmental
p3128
(lp3129
g67
asVsimulate
p3130
(lp3131
g43
asVipad
p3132
(lp3133
g21
asVdetection
p3134
(lp3135
g67
asVproviding
p3136
(lp3137
g94
ag16
asVsteep
p3138
(lp3139
g5
asVquery_set_of_playlists
p3140
(lp3141
g20
asVfalse
p3142
(lp3143
g32
ag5
ag11
asVhave
p3144
(lp3145
g19
ag20
ag32
ag5
ag33
ag34
ag16
asVneed
p3146
(lp3147
g5
ag67
ag16
asVacademically
p3148
(lp3149
g11
asVrinigng
p3150
(lp3151
g16
asVdishes
p3152
(lp3153
g16
asVmin
p3154
(lp3155
g8
asVemperical
p3156
(lp3157
g5
asVolfactory
p3158
(lp3159
g67
asVmid
p3160
(lp3161
g169
asVmix
p3162
(lp3163
g11
asVbest
p3164
(lp3165
g43
ag11
asVwhich
p3166
(lp3167
g19
ag20
ag32
ag34
ag8
ag67
asVlectures
p3168
(lp3169
g32
asVmutliline
p3170
(lp3171
g21
asVwho
p3172
(lp3173
g43
ag11
asVparenting
p3174
(lp3175
g11
ag16
asVdigestive
p3176
(lp3177
g16
asVdefinitions
p3178
(lp3179
g11
ag8
asVsally
p3180
(lp3181
g11
asVwhy
p3182
(lp3183
g43
ag5
ag21
ag8
asVconsequences
p3184
(lp3185
g16
asVurl
p3186
(lp3187
g19
ag20
asVlooked
p3188
(lp3189
g19
ag20
asVnormally
p3190
(lp3191
g19
ag20
asVaway
p3192
(lp3193
g67
ag16
asVgain
p3194
(lp3195
g16
asVemerging
p3196
(lp3197
g32
ag11
asVselection
p3198
(lp3199
g19
ag28
ag20
ag29
ag67
ag16
asVnags
p3200
(lp3201
g16
asVtext
p3202
(lp3203
g32
ag21
ag8
asVsupported
p3204
(lp3205
g28
ag29
asVthicker
p3206
(lp3207
g67
asVstaff
p3208
(lp3209
g16
asVpause
p3210
(lp3211
g21
asVbased
p3212
(lp3213
g19
ag20
ag70
ag32
ag5
ag21
ag11
asVknowledge
p3214
(lp3215
g32
ag16
asVcache
p3216
(lp3217
g19
ag28
ag20
ag29
ag21
asVreceptors
p3218
(lp3219
g67
asVoperational
p3220
(lp3221
g32
asVbuttons
p3222
(lp3223
g21
asVsoundbrush2
p3224
(lp3225
g21
asVmolecules
p3226
(lp3227
g67
asVhope
p3228
(lp3229
g94
ag11
asVhandle
p3230
(lp3231
g19
ag28
ag20
ag29
ag21
asVwatching
p3232
(lp3233
g16
asVlobe
p3234
(lp3235
g34
ag67
asVoverall
p3236
(lp3237
g43
asVwords
p3238
(lp3239
g20
asVbluray
p3240
(lp3241
g28
ag29
asVscrolling
p3242
(lp3243
g21
asVsteepness
p3244
(lp3245
g5
asVprocesses
p3246
(lp3247
g67
asVbrain
p3248
(lp3249
g33
ag34
ag67
asVcached
p3250
(lp3251
g21
asVshe
p3252
(lp3253
g11
asVstrenthens
p3254
(lp3255
g16
asVcontain
p3256
(lp3257
g19
ag20
asVgrab
p3258
(lp3259
g21
asVfixed
p3260
(lp3261
g20
ag5
ag16
asVview
p3262
(lp3263
g21
asVacquired
p3264
(lp3265
g8
asVjnd
p3266
(lp3267
g67
asVhumans
p3268
(lp3269
g8
ag67
asVintensity
p3270
(lp3271
g67
asVofficials
p3272
(lp3273
g5
asVmediaguide
p3274
(lp3275
g28
ag29
asVresponses
p3276
(lp3277
g16
asVcloses
p3278
(lp3279
g21
asVtend
p3280
(lp3281
g11
asVstate
p3282
(lp3283
g21
asVcorrectly
p3284
(lp3285
g21
asVlables
p3286
(lp3287
g21
asVneither
p3288
(lp3289
g5
asVemail
p3290
(lp3291
g94
ag21
asVwhitepapers
p3292
(lp3293
g94
asVemitted
p3294
(lp3295
g16
asVhowever
p3296
(lp3297
g16
asVhypothesis
p3298
(lp3299
g5
ag8
asVkey
p3300
(lp3301
g21
asVimpairments
p3302
(lp3303
g16
asVobservable
p3304
(lp3305
g16
asVcommands
p3306
(lp3307
g70
asVdrum
p3308
(lp3309
g169
ag21
asVlimits
p3310
(lp3311
g11
asVget_play_item_by_index
p3312
(lp3313
g52
asVtaking
p3314
(lp3315
g70
ag16
asVramp
p3316
(lp3317
g5
asVdrug
p3318
(lp3319
g5
ag8
asVetc
p3320
(lp3321
g43
ag94
ag32
ag11
ag8
ag67
asVfigures
p3322
(lp3323
g67
asVll
p3324
(lp3325
g32
asVotherwise
p3326
(lp3327
g28
ag29
asVcm
p3328
(lp3329
g28
ag52
ag29
asVenvironments
p3330
(lp3331
g32
asVwalk
p3332
(lp3333
g34
asVrespect
p3334
(lp3335
g11
asVdiscrimination
p3336
(lp3337
g16
asVresponds
p3338
(lp3339
g67
asVeraser
p3340
(lp3341
g21
asVcopied
p3342
(lp3343
g21
asVdefine
p3344
(lp3345
g5
asVsenses
p3346
(lp3347
g32
ag11
ag34
ag67
asVfinishes
p3348
(lp3349
g21
asVfaililng
p3350
(lp3351
g20
asVan
p3352
(lp3353
g19
ag20
ag32
ag5
ag11
ag67
asVsanitize_playlist
p3354
(lp3355
g19
ag20
asVvalue
p3356
(lp3357
g32
asVwill
p3358
(lp3359
g70
ag43
ag5
ag11
ag16
asVrename
p3360
(lp3361
g21
asVlayer
p3362
(lp3363
g21
asVringing
p3364
(lp3365
g16
asVdemo
p3366
(lp3367
g67
asVvs
p3368
(lp3369
g43
ag32
ag5
ag33
ag34
ag16
asVneutrients
p3370
(lp3371
g16
asVproductivity
p3372
(lp3373
g5
asVdiets
p3374
(lp3375
g16
asVplayhead
p3376
(lp3377
g21
asVhighlighted
p3378
(lp3379
g70
asVfrontal
p3380
(lp3381
g34
ag67
asVgets
p3382
(lp3383
g16
asVinjured
p3384
(lp3385
g33
ag34
asVball
p3386
(lp3387
g67
asVeffect
p3388
(lp3389
g32
ag5
ag21
ag11
ag8
asVv1
p3390
(lp3391
g19
ag20
asVv2
p3392
(lp3393
g21
asVexperimenter
p3394
(lp3395
g5
asVelicted
p3396
(lp3397
g16
asVstudent
p3398
(lp3399
g16
asVpedal
p3400
(lp3401
g169
asVoff
p3402
(lp3403
g5
ag21
asVcenter
p3404
(lp3405
g5
ag21
ag34
asVwell
p3406
(lp3407
g11
asVfighting
p3408
(lp3409
g16
asV11398
p3410
(lp3411
g20
asVposition
p3412
(lp3413
g70
ag21
asVaudio
p3414
(lp3415
g21
ag67
asVdrawing
p3416
(lp3417
g21
asVfetal
p3418
(lp3419
g32
asVrestore
p3420
(lp3421
g8
asVstores
p3422
(lp3423
g19
ag20
asVless
p3424
(lp3425
g43
ag32
ag5
ag21
ag11
ag16
asVmoments
p3426
(lp3427
g43
asVaccurate
p3428
(lp3429
g43
asVrecap
p3430
(lp3431
g11
asVstored
p3432
(lp3433
g19
ag20
asVprotecting
p3434
(lp3435
g5
asVlikes
p3436
(lp3437
g16
asVads
p3438
(lp3439
g94
asVdeprived
p3440
(lp3441
g8
asVknew
p3442
(lp3443
g16
asVnarcolepsy
p3444
(lp3445
g8
asVother
p3446
(lp3447
g19
ag20
ag32
ag5
ag21
ag34
ag67
ag16
asVautoscroll
p3448
(lp3449
g21
asVlookup
p3450
(lp3451
g19
ag20
asVmatch
p3452
(lp3453
g11
asVstakeholders
p3454
(lp3455
g43
asVtests
p3456
(lp3457
g43
asVincreased
p3458
(lp3459
g5
ag11
asVincreases
p3460
(lp3461
g5
asVcommunity
p3462
(lp3463
g11
asVpress
p3464
(lp3465
g70
asVimmediately
p3466
(lp3467
g16
asVsomatosense
p3468
(lp3469
g67
asVloss
p3470
(lp3471
g5
ag34
asVnecessary
p3472
(lp3473
g11
asVlike
p3474
(lp3475
g32
ag11
ag8
ag16
asVlost
p3476
(lp3477
g5
ag11
asVmhc
p3478
(lp3479
g67
asVcandy
p3480
(lp3481
g16
asVasync
p3482
(lp3483
g21
asVelicts
p3484
(lp3485
g16
asVworks
p3486
(lp3487
g43
ag67
ag16
asVpage
p3488
(lp3489
g19
ag20
ag21
asVadaptation
p3490
(lp3491
g67
asVexceed
p3492
(lp3493
g19
ag20
asVbecause
p3494
(lp3495
g19
ag20
ag5
ag67
asVgrids
p3496
(lp3497
g21
asVesp
p3498
(lp3499
g34
ag67
asVauthority
p3500
(lp3501
g5
asVhair
p3502
(lp3503
g67
asVexport
p3504
(lp3505
g21
asVpersue
p3506
(lp3507
g11
asVhome
p3508
(lp3509
g43
asVsupportive
p3510
(lp3511
g11
asVrecognition
p3512
(lp3513
g21
ag67
asVoverlay
p3514
(lp3515
g21
asVbroad
p3516
(lp3517
g11
asVlean
p3518
(lp3519
g43
asVdoes
p3520
(lp3521
g19
ag20
ag32
ag33
ag34
ag16
asVontogenetic
p3522
(lp3523
g32
asVschedule
p3524
(lp3525
g16
asVpressure
p3526
(lp3527
g67
asVparticpant
p3528
(lp3529
g5
asValthough
p3530
(lp3531
g5
asVcupcake
p3532
(lp3533
g11
asVpanel
p3534
(lp3535
g21
asVabout
p3536
(lp3537
g43
ag5
ag21
ag11
ag16
asVgetting
p3538
(lp3539
g19
ag20
asVuniverse
p3540
(lp3541
g5
asVconsciousness
p3542
(lp3543
g34
ag8
asVdependence
p3544
(lp3545
g8
asVown
p3546
(lp3547
g21
ag11
ag8
asVkeeps
p3548
(lp3549
g8
asVpolitical
p3550
(lp3551
g32
asVactualized
p3552
(lp3553
g32
asVdoesnt
p3554
(lp3555
g21
asVreceptor
p3556
(lp3557
g67
asVdevtasks
p3558
(lp3559
g21
asVinterdependence
p3560
(lp3561
g32
asVvideo_playlist_step
p3562
(lp3563
g52
asVnoticed
p3564
(lp3565
g5
asVvideo_playlist
p3566
(lp3567
g19
ag28
ag20
ag29
asVtrigger
p3568
(lp3569
g67
asVinner
p3570
(lp3571
g67
asVbiggest
p3572
(lp3573
g32
asVsoundcontroller
p3574
(lp3575
g21
asVfunction
p3576
(lp3577
g19
ag20
asVbut
p3578
(lp3579
g19
ag20
ag43
ag32
ag21
ag11
ag34
ag67
ag16
asVsubjective
p3580
(lp3581
g8
asVneutral
p3582
(lp3583
g5
ag16
asVhi
p3584
(lp3585
g169
asVgoals
p3586
(lp3587
g11
asVbeat
p3588
(lp3589
g21
asVear
p3590
(lp3591
g67
asVeat
p3592
(lp3593
g32
ag67
ag16
asVbud
p3594
(lp3595
g67
asVhe
p3596
(lp3597
g16
asVcount
p3598
(lp3599
g67
asValso
p3600
(lp3601
g52
ag11
asVplaces
p3602
(lp3603
g67
asVwhether
p3604
(lp3605
g19
ag20
ag5
asVcells
p3606
(lp3607
g67
asVofficial
p3608
(lp3609
g94
asVhosting
p3610
(lp3611
g70
asVreinforcement
p3612
(lp3613
g16
asVrecord
p3614
(lp3615
g43
asVconverted
p3616
(lp3617
g19
ag20
asVlimit
p3618
(lp3619
g43
ag21
asVinfants
p3620
(lp3621
g32
asVproblem
p3622
(lp3623
g5
ag11
asVdisplay
p3624
(lp3625
g21
asVmarketplace
p3626
(lp3627
g43
asVcontribute
p3628
(lp3629
g32
asVlobes
p3630
(lp3631
g34
ag67
asVperiods
p3632
(lp3633
g43
ag32
asVour
p3634
(lp3635
g32
ag5
ag11
ag67
asVfunctions
p3636
(lp3637
g34
ag67
asVcompared
p3638
(lp3639
g11
asV49
p3640
(lp3641
g169
asV46
p3642
(lp3643
g169
asV47
p3644
(lp3645
g169
asV44
p3646
(lp3647
g169
asV42
p3648
(lp3649
g169
asV43
p3650
(lp3651
g169
asVbook
p3652
(lp3653
g11
asVcompares
p3654
(lp3655
g43
asVdetails
p3656
(lp3657
g19
ag28
ag20
ag29
asVsick
p3658
(lp3659
g5
ag16
asVrepeat
p3660
(lp3661
g21
asVtraumatic
p3662
(lp3663
g34
asVcanvas
p3664
(lp3665
g21
asVstay
p3666
(lp3667
g8
asVchance
p3668
(lp3669
g5
ag8
asVload_user_script
p3670
(lp3671
g52
asVgap
p3672
(lp3673
g16
asVget_play_item_details
p3674
(lp3675
g28
ag52
ag29
asVpersistent
p3676
(lp3677
g21
asVbaumrind
p3678
(lp3679
g11
asVmedia_play_items
p3680
(lp3681
g28
ag52
ag29
assS'files'
p3682
(dp3683
g169
F1355123059.0
sg34
F1359037088.0
sg8
F1360076749.0
sg43
F1351555638.0
sg67
F1359384412.0
sg94
F1351125766.0
sg32
F1358434244.0
sg5
F1358429558.0
sg11
F1358865978.0
sg21
F1357948974.0
sg16
F1360692935.0
ssS'version'
p3684
I1
s.